(lp0
(lp1
I3
aI3
aI10
aI10
aI4
aI2
aI5
aI1
aI9
aI10
aa(lp2
I3
aI9
aI5
aI8
aI5
aI7
aI8
aI3
aI2
aI4
aa(lp3
I3
aI9
aI3
aI2
aI0
aI7
aI6
aI2
aI10
aI0
aa(lp4
I6
aI0
aI3
aI7
aI3
aI7
aI6
aI2
aI6
aI3
aa(lp5
I4
aI9
aI9
aI9
aI5
aI6
aI10
aI8
aI5
aI1
aa(lp6
I0
aI10
aI6
aI9
aI1
aI9
aI4
aI3
aI7
aI3
aa(lp7
I2
aI5
aI4
aI2
aI5
aI9
aI4
aI9
aI2
aI8
aa(lp8
I0
aI7
aI6
aI1
aI5
aI7
aI2
aI8
aI8
aI8
aa(lp9
I4
aI3
aI3
aI10
aI7
aI0
aI0
aI9
aI5
aI5
aa(lp10
I1
aI0
aI10
aI6
aI2
aI7
aI2
aI3
aI5
aI0
aa(lp11
I8
aI1
aI4
aI10
aI0
aI4
aI9
aI3
aI5
aI3
aa(lp12
I9
aI6
aI1
aI9
aI4
aI3
aI10
aI10
aI9
aI0
aa(lp13
I9
aI9
aI5
aI8
aI3
aI10
aI7
aI2
aI5
aI0
aa(lp14
I6
aI0
aI3
aI6
aI9
aI1
aI6
aI6
aI8
aI6
aa(lp15
I8
aI10
aI10
aI5
aI8
aI9
aI3
aI5
aI2
aI0
aa(lp16
I8
aI3
aI1
aI4
aI8
aI6
aI0
aI6
aI8
aI4
aa(lp17
I2
aI4
aI5
aI3
aI4
aI8
aI10
aI10
aI8
aI1
aa(lp18
I8
aI2
aI10
aI10
aI3
aI10
aI0
aI2
aI9
aI5
aa(lp19
I10
aI7
aI3
aI3
aI8
aI5
aI7
aI7
aI4
aI9
aa(lp20
I8
aI7
aI8
aI9
aI3
aI5
aI7
aI9
aI7
aI0
aa(lp21
I8
aI1
aI10
aI3
aI6
aI4
aI0
aI1
aI8
aI0
aa(lp22
I2
aI10
aI1
aI6
aI3
aI0
aI3
aI9
aI1
aI8
aa(lp23
I0
aI7
aI0
aI6
aI7
aI9
aI1
aI1
aI10
aI4
aa(lp24
I0
aI6
aI7
aI7
aI9
aI1
aI7
aI3
aI5
aI1
aa(lp25
I4
aI7
aI10
aI1
aI8
aI10
aI2
aI5
aI7
aI9
aa.